target datalayout = "e-m:e-p270:32:32-p271:32:32-p272:64:64-i64:64-i128:128-f80:128-n8:16:32:64-S128"
target triple = "x86_64-pc-linux-gnu"

@.str.16 = private unnamed_addr constant [38 x i8] c"%s: getaddrinfo(%s:%s) failed: %s: %m\00", align 1
@__func__._xgetaddrinfo = private unnamed_addr constant [14 x i8] c"_xgetaddrinfo\00", align 1
@.str.17 = private unnamed_addr constant [34 x i8] c"%s: getaddrinfo(%s:%s) failed: %s\00", align 1

; Function Attrs: nounwind uwtable
define internal ptr @_xgetaddrinfo(ptr noundef %0, ptr noundef %1, ptr noundef %2) #0 {
  %4 = alloca ptr, align 8
  %5 = alloca ptr, align 8
  %6 = alloca ptr, align 8
  %7 = alloca ptr, align 8
  %8 = alloca ptr, align 8
  %9 = alloca i32, align 4
  %10 = alloca i32, align 4
  store ptr %0, ptr %5, align 8
  store ptr %1, ptr %6, align 8
  store ptr %2, ptr %7, align 8
  call void @llvm.lifetime.start.p0(i64 8, ptr %8) #9
  store ptr null, ptr %8, align 8
  call void @llvm.lifetime.start.p0(i64 4, ptr %9) #9
  %11 = load ptr, ptr %5, align 8
  %12 = load ptr, ptr %6, align 8
  %13 = load ptr, ptr %7, align 8
  %14 = call i32 @getaddrinfo(ptr noundef %11, ptr noundef %12, ptr noundef %13, ptr noundef %8)
  store i32 %14, ptr %9, align 4
  %15 = load i32, ptr %9, align 4
  %16 = icmp eq i32 %15, -11
  br i1 %16, label %17, label %44

17:                                               ; preds = %3
  br label %18

18:                                               ; preds = %17
  %19 = call zeroext i1 @running_in_daemon()
  br i1 %19, label %20, label %26

20:                                               ; preds = %18
  %21 = load ptr, ptr %5, align 8
  %22 = load ptr, ptr %6, align 8
  %23 = load i32, ptr %9, align 4
  %24 = call ptr @gai_strerror(i32 noundef %23) #9
  %25 = call i32 (ptr, ...) @error(ptr noundef @.str.16, ptr noundef @__func__._xgetaddrinfo, ptr noundef %21, ptr noundef %22, ptr noundef %24)
  br label %41

26:                                               ; preds = %18
  br label %27

27:                                               ; preds = %26
  br label %28

28:                                               ; preds = %27
  %29 = call i32 @get_log_level()
  %30 = icmp sge i32 %29, 4
  br i1 %30, label %31, label %36

31:                                               ; preds = %28
  %32 = load ptr, ptr %5, align 8
  %33 = load ptr, ptr %6, align 8
  %34 = load i32, ptr %9, align 4
  %35 = call ptr @gai_strerror(i32 noundef %34) #9
  call void (i32, ptr, ...) @log_var(i32 noundef 4, ptr noundef @.str.16, ptr noundef @__func__._xgetaddrinfo, ptr noundef %32, ptr noundef %33, ptr noundef %35)
  br label %36

36:                                               ; preds = %31, %28
  br label %37

37:                                               ; preds = %36
  br label %38

38:                                               ; preds = %37
  br label %39

39:                                               ; preds = %38
  br label %40

40:                                               ; preds = %39
  br label %41

41:                                               ; preds = %40, %20
  br label %42

42:                                               ; preds = %41
  br label %43

43:                                               ; preds = %42
  store ptr null, ptr %4, align 8
  store i32 1, ptr %10, align 4
  br label %77

44:                                               ; preds = %3
  %45 = load i32, ptr %9, align 4
  %46 = icmp ne i32 %45, 0
  br i1 %46, label %47, label %74

47:                                               ; preds = %44
  br label %48

48:                                               ; preds = %47
  %49 = call zeroext i1 @running_in_daemon()
  br i1 %49, label %50, label %56

50:                                               ; preds = %48
  %51 = load ptr, ptr %5, align 8
  %52 = load ptr, ptr %6, align 8
  %53 = load i32, ptr %9, align 4
  %54 = call ptr @gai_strerror(i32 noundef %53) #9
  %55 = call i32 (ptr, ...) @error(ptr noundef @.str.17, ptr noundef @__func__._xgetaddrinfo, ptr noundef %51, ptr noundef %52, ptr noundef %54)
  br label %71

56:                                               ; preds = %48
  br label %57

57:                                               ; preds = %56
  br label %58

58:                                               ; preds = %57
  %59 = call i32 @get_log_level()
  %60 = icmp sge i32 %59, 4
  br i1 %60, label %61, label %66

61:                                               ; preds = %58
  %62 = load ptr, ptr %5, align 8
  %63 = load ptr, ptr %6, align 8
  %64 = load i32, ptr %9, align 4
  %65 = call ptr @gai_strerror(i32 noundef %64) #9
  call void (i32, ptr, ...) @log_var(i32 noundef 4, ptr noundef @.str.17, ptr noundef @__func__._xgetaddrinfo, ptr noundef %62, ptr noundef %63, ptr noundef %65)
  br label %66

66:                                               ; preds = %61, %58
  br label %67

67:                                               ; preds = %66
  br label %68

68:                                               ; preds = %67
  br label %69

69:                                               ; preds = %68
  br label %70

70:                                               ; preds = %69
  br label %71

71:                                               ; preds = %70, %50
  br label %72

72:                                               ; preds = %71
  br label %73

73:                                               ; preds = %72
  store ptr null, ptr %4, align 8
  store i32 1, ptr %10, align 4
  br label %77

74:                                               ; preds = %44
  br label %75

75:                                               ; preds = %74
  %76 = load ptr, ptr %8, align 8
  store ptr %76, ptr %4, align 8
  store i32 1, ptr %10, align 4
  br label %77

77:                                               ; preds = %75, %73, %43
  call void @llvm.lifetime.end.p0(i64 4, ptr %9) #9
  call void @llvm.lifetime.end.p0(i64 8, ptr %8) #9
  %78 = load ptr, ptr %4, align 8
  ret ptr %78
}