; Function Attrs: nounwind uwtable
define internal fastcc ptr @_xgetaddrinfo(ptr noundef %0, ptr noundef %1, ptr noundef nonnull %2) unnamed_addr #0 {
  %4 = alloca ptr, align 8
  call void @llvm.lifetime.start.p0(i64 8, ptr nonnull %4) #14
  store ptr null, ptr %4, align 8
  %5 = call i32 @getaddrinfo(ptr noundef %0, ptr noundef %1, ptr noundef nonnull %2, ptr noundef nonnull %4) #14
  switch i32 %5, label %16 [
    i32 -11, label %6
    i32 0, label %26
  ]

6:                                                ; preds = %3
  %7 = call zeroext i1 @running_in_daemon() #14
  br i1 %7, label %8, label %11

8:                                                ; preds = %6
  %9 = call ptr @gai_strerror(i32 noundef -11) #14
  %10 = call i32 (ptr, ...) @error(ptr noundef nonnull @.str.16, ptr noundef nonnull @__func__._xgetaddrinfo, ptr noundef %0, ptr noundef %1, ptr noundef %9) #14
  br label %28

11:                                               ; preds = %6
  %12 = call i32 @get_log_level() #14
  %13 = icmp sgt i32 %12, 3
  br i1 %13, label %14, label %28

14:                                               ; preds = %11
  %15 = call ptr @gai_strerror(i32 noundef -11) #14
  call void (i32, ptr, ...) @log_var(i32 noundef 4, ptr noundef nonnull @.str.16, ptr noundef nonnull @__func__._xgetaddrinfo, ptr noundef %0, ptr noundef %1, ptr noundef %15) #14
  br label %28

16:                                               ; preds = %3
  %17 = call zeroext i1 @running_in_daemon() #14
  br i1 %17, label %18, label %21

18:                                               ; preds = %16
  %19 = call ptr @gai_strerror(i32 noundef %5) #14
  %20 = call i32 (ptr, ...) @error(ptr noundef nonnull @.str.17, ptr noundef nonnull @__func__._xgetaddrinfo, ptr noundef %0, ptr noundef %1, ptr noundef %19) #14
  br label %28

21:                                               ; preds = %16
  %22 = call i32 @get_log_level() #14
  %23 = icmp sgt i32 %22, 3
  br i1 %23, label %24, label %28

24:                                               ; preds = %21
  %25 = call ptr @gai_strerror(i32 noundef %5) #14
  call void (i32, ptr, ...) @log_var(i32 noundef 4, ptr noundef nonnull @.str.17, ptr noundef nonnull @__func__._xgetaddrinfo, ptr noundef %0, ptr noundef %1, ptr noundef %25) #14
  br label %28

26:                                               ; preds = %3
  %27 = load ptr, ptr %4, align 8
  br label %28

28:                                               ; preds = %18, %24, %21, %8, %14, %11, %26
  %.0 = phi ptr [ %27, %26 ], [ null, %11 ], [ null, %14 ], [ null, %8 ], [ null, %21 ], [ null, %24 ], [ null, %18 ]
  call void @llvm.lifetime.end.p0(i64 8, ptr nonnull %4) #14
  ret ptr %.0
}